(i__main__
RSA
p0
(dp1
S'enc'
p2
(lp3
L121681L
aL102248L
aL126855L
aL12140L
aL114956L
aL43713L
aL84265L
aL47224L
aL43713L
aL84265L
aL47224L
aL126855L
aL39159L
aL147002L
aL47769L
aL67595L
asS'e'
p4
I65537
sS'd'
p5
I45953
sS'tot'
p6
I151872
sS'n'
p7
I152771
sS'q'
p8
I673
sS'p'
p9
I227
sS'et'
p10
F0.19476699829101562
sS'dt'
p11
F0.1312549114227295
sS'times'
p12
F0.6739073486495486
sS'avg'
p13
F0.6692959031515301
sb.